target datalayout = "e-m:e-p270:32:32-p271:32:32-p272:64:64-i64:64-i128:128-f80:128-n8:16:32:64-S128"
target triple = "x86_64-pc-linux-gnu"

%struct.pg_tm = type { i32, i32, i32, i32, i32, i32, i32, i32, i32, i64, ptr }
%struct.FunctionCallInfoBaseData = type { ptr, ptr, ptr, i32, i8, i16, [0 x %struct.NullableDatum] }
%struct.NullableDatum = type { i64, i8 }

@.str.3 = private unnamed_addr constant [7 x i8] c"date.c\00", align 1
@.str.19 = private unnamed_addr constant [23 x i8] c"timestamp out of range\00", align 1
@__func__.timestamptz_date = private unnamed_addr constant [17 x i8] c"timestamptz_date\00", align 1

; Function Attrs: inlinehint nounwind uwtable
define internal i64 @Int32GetDatum(i32 noundef %0) #4 {
  %2 = alloca i32, align 4
  store i32 %0, ptr %2, align 4
  %3 = load i32, ptr %2, align 4
  %4 = sext i32 %3 to i64
  ret i64 %4
}

; Function Attrs: inlinehint nounwind uwtable
define internal i64 @DatumGetInt64(i64 noundef %0) #4 {
  %2 = alloca i64, align 8
  store i64 %0, ptr %2, align 8
  %3 = load i64, ptr %2, align 8
  ret i64 %3
}

; Function Attrs: inlinehint nounwind uwtable
define internal i64 @DateADTGetDatum(i32 noundef %0) #4 {
  %2 = alloca i32, align 4
  store i32 %0, ptr %2, align 4
  %3 = load i32, ptr %2, align 4
  %4 = call i64 @Int32GetDatum(i32 noundef %3)
  ret i64 %4
}

; Function Attrs: inlinehint nounwind uwtable
define internal i64 @DatumGetTimestamp(i64 noundef %0) #4 {
  %2 = alloca i64, align 8
  store i64 %0, ptr %2, align 8
  %3 = load i64, ptr %2, align 8
  %4 = call i64 @DatumGetInt64(i64 noundef %3)
  ret i64 %4
}

; Function Attrs: nounwind uwtable
define dso_local i64 @timestamptz_date(ptr noundef %0) #0 {
  %2 = alloca ptr, align 8
  %3 = alloca i64, align 8
  %4 = alloca i32, align 4
  %5 = alloca %struct.pg_tm, align 8
  %6 = alloca ptr, align 8
  %7 = alloca i32, align 4
  %8 = alloca i32, align 4
  store ptr %0, ptr %2, align 8
  call void @llvm.lifetime.start.p0(i64 8, ptr %3) #9
  %9 = load ptr, ptr %2, align 8
  %10 = getelementptr inbounds nuw %struct.FunctionCallInfoBaseData, ptr %9, i32 0, i32 6
  %11 = getelementptr inbounds [0 x %struct.NullableDatum], ptr %10, i64 0, i64 0
  %12 = getelementptr inbounds nuw %struct.NullableDatum, ptr %11, i32 0, i32 0
  %13 = load i64, ptr %12, align 8
  %14 = call i64 @DatumGetTimestamp(i64 noundef %13)
  store i64 %14, ptr %3, align 8
  call void @llvm.lifetime.start.p0(i64 4, ptr %4) #9
  call void @llvm.lifetime.start.p0(i64 56, ptr %5) #9
  call void @llvm.lifetime.start.p0(i64 8, ptr %6) #9
  store ptr %5, ptr %6, align 8
  call void @llvm.lifetime.start.p0(i64 4, ptr %7) #9
  call void @llvm.lifetime.start.p0(i64 4, ptr %8) #9
  %15 = load i64, ptr %3, align 8
  %16 = icmp eq i64 %15, -9223372036854775808
  br i1 %16, label %17, label %18

17:                                               ; preds = %1
  store i32 -2147483648, ptr %4, align 4
  br label %52

18:                                               ; preds = %1
  %19 = load i64, ptr %3, align 8
  %20 = icmp eq i64 %19, 9223372036854775807
  br i1 %20, label %21, label %22

21:                                               ; preds = %18
  store i32 2147483647, ptr %4, align 4
  br label %51

22:                                               ; preds = %18
  %23 = load i64, ptr %3, align 8
  %24 = load ptr, ptr %6, align 8
  %25 = call i32 @timestamp2tm(i64 noundef %23, ptr noundef %8, ptr noundef %24, ptr noundef %7, ptr noundef null, ptr noundef null)
  %26 = icmp ne i32 %25, 0
  br i1 %26, label %27, label %39

27:                                               ; preds = %22
  br label %28

28:                                               ; preds = %27
  br i1 true, label %29, label %31

29:                                               ; preds = %28
  %30 = call zeroext i1 @errstart_cold(i32 noundef 21, ptr noundef null) #8
  br i1 %30, label %33, label %36

31:                                               ; preds = %28
  %32 = call zeroext i1 @errstart(i32 noundef 21, ptr noundef null)
  br i1 %32, label %33, label %36

33:                                               ; preds = %31, %29
  %34 = call i32 @errcode(i32 noundef 134217858)
  %35 = call i32 (ptr, ...) @errmsg(ptr noundef @.str.19)
  call void @errfinish(ptr noundef @.str.3, i32 noundef 1379, ptr noundef @__func__.timestamptz_date)
  br label %36

36:                                               ; preds = %33, %31, %29
  unreachable

37:                                               ; No predecessors!
  br label %38

38:                                               ; preds = %37
  br label %39

39:                                               ; preds = %38, %22
  %40 = load ptr, ptr %6, align 8
  %41 = getelementptr inbounds nuw %struct.pg_tm, ptr %40, i32 0, i32 5
  %42 = load i32, ptr %41, align 4
  %43 = load ptr, ptr %6, align 8
  %44 = getelementptr inbounds nuw %struct.pg_tm, ptr %43, i32 0, i32 4
  %45 = load i32, ptr %44, align 8
  %46 = load ptr, ptr %6, align 8
  %47 = getelementptr inbounds nuw %struct.pg_tm, ptr %46, i32 0, i32 3
  %48 = load i32, ptr %47, align 4
  %49 = call i32 @date2j(i32 noundef %42, i32 noundef %45, i32 noundef %48)
  %50 = sub i32 %49, 2451545
  store i32 %50, ptr %4, align 4
  br label %51

51:                                               ; preds = %39, %21
  br label %52

52:                                               ; preds = %51, %17
  %53 = load i32, ptr %4, align 4
  %54 = call i64 @DateADTGetDatum(i32 noundef %53)
  call void @llvm.lifetime.end.p0(i64 4, ptr %8) #9
  call void @llvm.lifetime.end.p0(i64 4, ptr %7) #9
  call void @llvm.lifetime.end.p0(i64 8, ptr %6) #9
  call void @llvm.lifetime.end.p0(i64 56, ptr %5) #9
  call void @llvm.lifetime.end.p0(i64 4, ptr %4) #9
  call void @llvm.lifetime.end.p0(i64 8, ptr %3) #9
  ret i64 %54
}