; Function Attrs: nounwind uwtable
define dso_local range(i64 -2147483648, 2147483648) i64 @timestamptz_date(ptr noundef readonly captures(none) %0) local_unnamed_addr #0 {
  %2 = alloca %struct.pg_tm, align 8
  %3 = alloca i32, align 4
  %4 = alloca i32, align 4
  %5 = getelementptr inbounds nuw i8, ptr %0, i64 32
  %6 = load i64, ptr %5, align 8
  call void @llvm.lifetime.start.p0(i64 56, ptr nonnull %2) #16
  call void @llvm.lifetime.start.p0(i64 4, ptr nonnull %3) #16
  call void @llvm.lifetime.start.p0(i64 4, ptr nonnull %4) #16
  switch i64 %6, label %8 [
    i64 -9223372036854775808, label %24
    i64 9223372036854775807, label %7
  ]

7:                                                ; preds = %1
  br label %24

8:                                                ; preds = %1
  %9 = call i32 @timestamp2tm(i64 noundef %6, ptr noundef nonnull %4, ptr noundef nonnull %2, ptr noundef nonnull %3, ptr noundef null, ptr noundef null) #16
  %.not = icmp eq i32 %9, 0
  br i1 %.not, label %14, label %10

10:                                               ; preds = %8
  %11 = call zeroext i1 @errstart_cold(i32 noundef 21, ptr noundef null) #15
  call void @llvm.assume(i1 %11)
  %12 = call i32 @errcode(i32 noundef 134217858) #16
  %13 = call i32 (ptr, ...) @errmsg(ptr noundef nonnull @.str.19) #16
  call void @errfinish(ptr noundef nonnull @.str.3, i32 noundef 1379, ptr noundef nonnull @__func__.timestamptz_date) #16
  unreachable

14:                                               ; preds = %8
  %15 = getelementptr inbounds nuw i8, ptr %2, i64 20
  %16 = load i32, ptr %15, align 4
  %17 = getelementptr inbounds nuw i8, ptr %2, i64 16
  %18 = load i32, ptr %17, align 8
  %19 = getelementptr inbounds nuw i8, ptr %2, i64 12
  %20 = load i32, ptr %19, align 4
  %21 = call i32 @date2j(i32 noundef %16, i32 noundef %18, i32 noundef %20) #16
  %22 = add i32 %21, -2451545
  %23 = sext i32 %22 to i64
  br label %24

24:                                               ; preds = %1, %7, %14
  %.0 = phi i64 [ 2147483647, %7 ], [ %23, %14 ], [ -2147483648, %1 ]
  call void @llvm.lifetime.end.p0(i64 4, ptr nonnull %4) #16
  call void @llvm.lifetime.end.p0(i64 4, ptr nonnull %3) #16
  call void @llvm.lifetime.end.p0(i64 56, ptr nonnull %2) #16
  ret i64 %.0
}